; Function Attrs: mustprogress uwtable
define void @_ZN8proxygen12QPACKEncoder15encodeDuplicateEj(ptr noundef nonnull align 8 dereferenceable(624) %this, i32 noundef %index) local_unnamed_addr #3 align 2 personality ptr @__gxx_personality_v0 {
entry:
  %controlBuffer_ = getelementptr inbounds i8, ptr %this, i64 272
  %sub = add i32 %index, -1
  %conv = zext i32 %sub to i64
  %call11 = tail call noundef i32 @_ZN8proxygen17HPACKEncodeBuffer13encodeIntegerEmRKNS_5HPACK11InstructionE(ptr noundef nonnull align 8 dereferenceable(132) %controlBuffer_, i64 noundef %conv, ptr noundef nonnull align 1 dereferenceable(2) @_ZN8proxygen5HPACKL11Q_DUPLICATEE)
  %conv12 = zext i32 %call11 to i64
  %maxEncoderStreamBytes_ = getelementptr inbounds i8, ptr %this, i64 536
  %0 = load i64, ptr %maxEncoderStreamBytes_, align 8
  %sub13 = sub nsw i64 %0, %conv12
  store i64 %sub13, ptr %maxEncoderStreamBytes_, align 8
  ret void
}